target datalayout = "e-m:e-p270:32:32-p271:32:32-p272:64:64-i64:64-i128:128-f80:128-n8:16:32:64-S128"
target triple = "x86_64-pc-linux-gnu"

@.str.9 = private unnamed_addr constant [131 x i8] c"generated/home/dtcxzyw/WorkSpace/Projects/compilers/llvm-opt-benchmark/bench/gromacs/gromacs/src/gromacs/gmxpreprocess/toppush.cpp\00", align 1
@.str.45 = private unnamed_addr constant [9 x i8] c"*nbparam\00", align 1
@.str.46 = private unnamed_addr constant [21 x i8] c"(*nbparam)[atnr - 1]\00", align 1
@.str.47 = private unnamed_addr constant [6 x i8] c"*pair\00", align 1
@.str.48 = private unnamed_addr constant [18 x i8] c"(*pair)[atnr - 1]\00", align 1

; Function Attrs: mustprogress uwtable
define internal void @_ZL13gmx_snew_implI9t_nbparamEvPKcS2_iRPT_m(ptr noundef %0, ptr noundef %1, i32 noundef %2, ptr noundef nonnull align 8 dereferenceable(8) %3, i64 noundef %4) #2 {
  %6 = alloca ptr, align 8
  %7 = alloca ptr, align 8
  %8 = alloca i32, align 4
  %9 = alloca ptr, align 8
  %10 = alloca i64, align 8
  store ptr %0, ptr %6, align 8
  store ptr %1, ptr %7, align 8
  store i32 %2, ptr %8, align 4
  store ptr %3, ptr %9, align 8
  store i64 %4, ptr %10, align 8
  %11 = load ptr, ptr %6, align 8
  %12 = load ptr, ptr %7, align 8
  %13 = load i32, ptr %8, align 4
  %14 = load i64, ptr %10, align 8
  %15 = call noundef ptr @_Z11save_callocPKcS0_imm(ptr noundef %11, ptr noundef %12, i32 noundef %13, i64 noundef %14, i64 noundef 20)
  %16 = load ptr, ptr %9, align 8
  store ptr %15, ptr %16, align 8
  ret void
}

; Function Attrs: mustprogress uwtable
define internal void @_ZL15gmx_srenew_implIP9t_nbparamEvPKcS3_iRPT_m(ptr noundef %0, ptr noundef %1, i32 noundef %2, ptr noundef nonnull align 8 dereferenceable(8) %3, i64 noundef %4) #2 {
  %6 = alloca ptr, align 8
  %7 = alloca ptr, align 8
  %8 = alloca i32, align 4
  %9 = alloca ptr, align 8
  %10 = alloca i64, align 8
  store ptr %0, ptr %6, align 8
  store ptr %1, ptr %7, align 8
  store i32 %2, ptr %8, align 4
  store ptr %3, ptr %9, align 8
  store i64 %4, ptr %10, align 8
  %11 = load ptr, ptr %6, align 8
  %12 = load ptr, ptr %7, align 8
  %13 = load i32, ptr %8, align 4
  %14 = load ptr, ptr %9, align 8
  %15 = load ptr, ptr %14, align 8
  %16 = load i64, ptr %10, align 8
  %17 = call noundef ptr @_Z12save_reallocPKcS0_iPvmm(ptr noundef %11, ptr noundef %12, i32 noundef %13, ptr noundef %15, i64 noundef %16, i64 noundef 8)
  %18 = load ptr, ptr %9, align 8
  store ptr %17, ptr %18, align 8
  ret void
}

; Function Attrs: mustprogress uwtable
define internal void @_ZL17realloc_nb_paramsP22PreprocessingAtomTypesPPP9t_nbparamS4_(ptr noundef %0, ptr noundef %1, ptr noundef %2) #2 {
  %4 = alloca ptr, align 8
  %5 = alloca ptr, align 8
  %6 = alloca ptr, align 8
  %7 = alloca i32, align 4
  store ptr %0, ptr %4, align 8
  store ptr %1, ptr %5, align 8
  store ptr %2, ptr %6, align 8
  %8 = load ptr, ptr %4, align 8
  %9 = call noundef i64 @_ZNK22PreprocessingAtomTypes4sizeEv(ptr noundef nonnull align 8 dereferenceable(8) %8)
  %10 = trunc i64 %9 to i32
  store i32 %10, ptr %7, align 4
  %11 = load ptr, ptr %5, align 8
  %12 = load i32, ptr %7, align 4
  %13 = sext i32 %12 to i64
  call void @_ZL15gmx_srenew_implIP9t_nbparamEvPKcS3_iRPT_m(ptr noundef @.str.45, ptr noundef @.str.9, i32 noundef 226, ptr noundef nonnull align 8 dereferenceable(8) %11, i64 noundef %13)
  %14 = load ptr, ptr %5, align 8
  %15 = load ptr, ptr %14, align 8
  %16 = load i32, ptr %7, align 4
  %17 = sub nsw i32 %16, 1
  %18 = sext i32 %17 to i64
  %19 = getelementptr inbounds ptr, ptr %15, i64 %18
  %20 = load i32, ptr %7, align 4
  %21 = sext i32 %20 to i64
  call void @_ZL13gmx_snew_implI9t_nbparamEvPKcS2_iRPT_m(ptr noundef @.str.46, ptr noundef @.str.9, i32 noundef 227, ptr noundef nonnull align 8 dereferenceable(8) %19, i64 noundef %21)
  %22 = load ptr, ptr %6, align 8
  %23 = icmp ne ptr %22, null
  br i1 %23, label %24, label %36

24:                                               ; preds = %3
  %25 = load ptr, ptr %6, align 8
  %26 = load i32, ptr %7, align 4
  %27 = sext i32 %26 to i64
  call void @_ZL15gmx_srenew_implIP9t_nbparamEvPKcS3_iRPT_m(ptr noundef @.str.47, ptr noundef @.str.9, i32 noundef 230, ptr noundef nonnull align 8 dereferenceable(8) %25, i64 noundef %27)
  %28 = load ptr, ptr %6, align 8
  %29 = load ptr, ptr %28, align 8
  %30 = load i32, ptr %7, align 4
  %31 = sub nsw i32 %30, 1
  %32 = sext i32 %31 to i64
  %33 = getelementptr inbounds ptr, ptr %29, i64 %32
  %34 = load i32, ptr %7, align 4
  %35 = sext i32 %34 to i64
  call void @_ZL13gmx_snew_implI9t_nbparamEvPKcS2_iRPT_m(ptr noundef @.str.48, ptr noundef @.str.9, i32 noundef 231, ptr noundef nonnull align 8 dereferenceable(8) %33, i64 noundef %35)
  br label %36

36:                                               ; preds = %24, %3
  ret void
}