; Function Attrs: mustprogress uwtable
define internal fastcc void @_ZL17realloc_nb_paramsP22PreprocessingAtomTypesPPP9t_nbparamS4_(ptr noundef nonnull %0, ptr nocapture noundef %1, ptr noundef %2) unnamed_addr #1 {
  %4 = tail call noundef i64 @_ZNK22PreprocessingAtomTypes4sizeEv(ptr noundef nonnull align 8 dereferenceable(8) %0)
  %sext = shl i64 %4, 32
  %5 = ashr exact i64 %sext, 32
  %6 = load ptr, ptr %1, align 8
  %7 = tail call noundef ptr @_Z12save_reallocPKcS0_iPvmm(ptr noundef nonnull @.str.45, ptr noundef nonnull @.str.9, i32 noundef 226, ptr noundef %6, i64 noundef %5, i64 noundef 8)
  store ptr %7, ptr %1, align 8
  %sext11 = add i64 %sext, -4294967296
  %8 = ashr exact i64 %sext11, 32
  %9 = getelementptr inbounds ptr, ptr %7, i64 %8
  %10 = tail call noundef ptr @_Z11save_callocPKcS0_imm(ptr noundef nonnull @.str.46, ptr noundef nonnull @.str.9, i32 noundef 227, i64 noundef %5, i64 noundef 20)
  store ptr %10, ptr %9, align 8
  %.not = icmp eq ptr %2, null
  br i1 %.not, label %16, label %11

11:                                               ; preds = %3
  %12 = load ptr, ptr %2, align 8
  %13 = tail call noundef ptr @_Z12save_reallocPKcS0_iPvmm(ptr noundef nonnull @.str.47, ptr noundef nonnull @.str.9, i32 noundef 230, ptr noundef %12, i64 noundef %5, i64 noundef 8)
  store ptr %13, ptr %2, align 8
  %14 = getelementptr inbounds ptr, ptr %13, i64 %8
  %15 = tail call noundef ptr @_Z11save_callocPKcS0_imm(ptr noundef nonnull @.str.48, ptr noundef nonnull @.str.9, i32 noundef 231, i64 noundef %5, i64 noundef 20)
  store ptr %15, ptr %14, align 8
  br label %16

16:                                               ; preds = %11, %3
  ret void
}